target datalayout = "e-m:e-p270:32:32-p271:32:32-p272:64:64-i64:64-i128:128-f80:128-n8:16:32:64-S128"
target triple = "x86_64-pc-linux-gnu"

%struct.SDL_Cursor = type { ptr, ptr }
%struct.SDL_CursorData = type { i64 }
%struct.SDL_VideoDevice = type { ptr, ptr, ptr, ptr, ptr, ptr, ptr, ptr, ptr, ptr, ptr, ptr, ptr, ptr, ptr, ptr, ptr, ptr, ptr, ptr, ptr, ptr, ptr, ptr, ptr, ptr, ptr, ptr, ptr, ptr, ptr, ptr, ptr, ptr, ptr, ptr, ptr, ptr, ptr, ptr, ptr, ptr, ptr, ptr, ptr, ptr, ptr, ptr, ptr, ptr, ptr, ptr, ptr, ptr, ptr, ptr, ptr, ptr, ptr, ptr, ptr, ptr, ptr, ptr, ptr, ptr, ptr, ptr, ptr, ptr, ptr, ptr, ptr, ptr, ptr, ptr, ptr, ptr, ptr, ptr, ptr, ptr, ptr, ptr, ptr, ptr, ptr, ptr, ptr, ptr, ptr, ptr, ptr, ptr, ptr, ptr, ptr, i64, i8, i8, i8, ptr, i32, ptr, %struct.SDL_Rect, ptr, ptr, i32, ptr, ptr, ptr, ptr, i64, ptr, i8, i32, i32, %struct.anon, ptr, ptr, ptr, ptr, ptr, ptr, %struct.SDL_AtomicInt, %struct.SDL_AtomicInt, i8, %struct.anon.0, ptr, ptr, ptr, ptr, ptr }
%struct.SDL_Rect = type { i32, i32, i32, i32 }
%struct.anon = type { i32, i32, i32, i32, i32, i32, i32, i32, i32, i32, i32, i32, i32, i32, i32, i32, i32, i32, i32, i32, i32, i32, i32, i32, i32, i32, i32, i32, i32, [256 x i8], ptr }
%struct.SDL_AtomicInt = type { i32 }
%struct.anon.0 = type { ptr, ptr, i32, [256 x i8], ptr }
%struct.SDL_Window = type { i32, ptr, ptr, i32, i32, i32, i32, i32, i32, i32, i32, float, float, i32, i32, i64, i64, float, i8, i8, i32, i32, %struct.SDL_Rect, %struct.SDL_Rect, %struct.SDL_Rect, i8, i8, i8, %struct.SDL_DisplayMode, %struct.SDL_DisplayMode, %struct.SDL_HDROutputProperties, float, ptr, i8, i8, i8, i8, i8, i8, i8, i8, i8, i32, i32, i32, i32, %struct.SDL_Rect, i32, i8, %struct.SDL_Rect, i32, %struct.SDL_Rect, ptr, ptr, i32, float, i32, i32, ptr, ptr, ptr, ptr, ptr, ptr, ptr, ptr, ptr }
%struct.SDL_DisplayMode = type { i32, i32, i32, i32, float, float, i32, i32, ptr }
%struct.SDL_HDROutputProperties = type { float, float }
%struct.SDL_WindowData = type { ptr, i64, ptr, i64, i8, %struct.XShmSegmentInfo, ptr, ptr, ptr, i8, i32, i32, i32, i32, i8, i8, i8, i64, i32, i64, i8, %struct.SDL_Point, %struct.XConfigureEvent, %struct.XConfigureEvent, ptr, i64, i64, i64, i8, i64, ptr, i8, [4 x i64], %struct.SDL_Rect, i64, %struct._XSyncValue, i8, %struct.SDL_Rect, %struct.SDL_DisplayMode, i32, i32, i8, i8, i8, i8, i8, i8, i8, i8, i32, %struct.XPoint, ptr, ptr, i32, i32, i8 }
%struct.XShmSegmentInfo = type { i64, i32, ptr, i32 }
%struct.SDL_Point = type { i32, i32 }
%struct.XConfigureEvent = type { i32, i64, i32, ptr, i64, i64, i32, i32, i32, i32, i32, i64, i32 }
%struct._XSyncValue = type { i32, i32 }
%struct.XPoint = type { i16, i16 }
%struct.anon.4 = type { ptr, ptr, i32, i32, i32, i32, ptr, i64, i64, i64, i32, ptr, i32, i32, i32, i32, i32, ptr, i32, i32, ptr, ptr, i32, i64, i64, ptr, ptr, ptr, ptr, i32, ptr, ptr, ptr, i32, i32, ptr, i64, i64, i32, i32, ptr, ptr, i32, ptr }
%struct.Screen = type { ptr, ptr, i64, i32, i32, i32, i32, i32, ptr, i32, ptr, ptr, i64, i64, i64, i32, i32, i32, i32, i64 }
%struct.SDL_VideoData = type { ptr, ptr, i32, ptr, i64, i32, ptr, i32, i64, i64, %struct.X11_ClipboardData, %struct.X11_ClipboardData, ptr, i64, %struct.X11_SettingsData, i8, %struct.anon.1, [256 x i32], i8, i8, i8, i64, i8, %struct.SDL_Point, i32, ptr, i32, i8, i32, %struct.anon.2, i8, i64, ptr, ptr, i8, i8, i8 }
%struct.X11_ClipboardData = type { ptr, ptr, ptr, i64, i32 }
%struct.X11_SettingsData = type { ptr }
%struct.anon.1 = type { i64, i64, i64, i64, i64, i64, i64, i64, i64, i64, i64, i64, i64, i64, i64, i64, i64, i64, i64, i64, i64, i64, i64, i64, i64, i64, i64, i64, i64, i64, i64, i64, i64, i64, i64, i64, i64, i64, i64, i64, i64, i64, i64, i64, i64, i64, i64, i64, i64, i64, i64, i64, i64 }
%struct.anon.2 = type { ptr, i32, i32, i32, i16, i32, i32 }
%struct.XColor = type { i64, i16, i16, i16, i8, i8 }

@X11_XCreateBitmapFromData = external global ptr, align 8
@X11_XCreatePixmapCursor = external global ptr, align 8
@X11_XFreePixmap = external global ptr, align 8
@x11_cursor_visible = internal global i8 1, align 1
@X11_XDefineCursor = external global ptr, align 8
@X11_XUndefineCursor = external global ptr, align 8
@X11_XFlush = external global ptr, align 8
@x11_empty_cursor = internal global i64 0, align 8

; Function Attrs: nounwind uwtable
define internal ptr @GetDisplay() #0 {
  %1 = call ptr @SDL_GetVideoDevice()
  %2 = getelementptr inbounds nuw %struct.SDL_VideoDevice, ptr %1, i32 0, i32 128
  %3 = load ptr, ptr %2, align 8
  %4 = getelementptr inbounds nuw %struct.SDL_VideoData, ptr %3, i32 0, i32 0
  %5 = load ptr, ptr %4, align 8
  ret ptr %5
}

; Function Attrs: nounwind uwtable
define internal i64 @X11_CreateEmptyCursor() #0 {
  %1 = alloca ptr, align 8
  %2 = alloca [1 x i8], align 1
  %3 = alloca %struct.XColor, align 8
  %4 = alloca i64, align 8
  %5 = load i64, ptr @x11_empty_cursor, align 8
  %6 = icmp eq i64 %5, 0
  br i1 %6, label %7, label %40

7:                                                ; preds = %0
  call void @llvm.lifetime.start.p0(i64 8, ptr %1) #6
  %8 = call ptr @GetDisplay()
  store ptr %8, ptr %1, align 8
  call void @llvm.lifetime.start.p0(i64 1, ptr %2) #6
  call void @llvm.lifetime.start.p0(i64 16, ptr %3) #6
  call void @llvm.lifetime.start.p0(i64 8, ptr %4) #6
  %9 = getelementptr inbounds [1 x i8], ptr %2, i64 0, i64 0
  call void @llvm.memset.p0.i64(ptr align 1 %9, i8 0, i64 1, i1 false)
  %10 = getelementptr inbounds nuw %struct.XColor, ptr %3, i32 0, i32 3
  store i16 0, ptr %10, align 4
  %11 = getelementptr inbounds nuw %struct.XColor, ptr %3, i32 0, i32 2
  store i16 0, ptr %11, align 2
  %12 = getelementptr inbounds nuw %struct.XColor, ptr %3, i32 0, i32 1
  store i16 0, ptr %12, align 8
  %13 = load ptr, ptr @X11_XCreateBitmapFromData, align 8
  %14 = load ptr, ptr %1, align 8
  %15 = load ptr, ptr %1, align 8
  %16 = getelementptr inbounds nuw %struct.anon.4, ptr %15, i32 0, i32 35
  %17 = load ptr, ptr %16, align 8
  %18 = load ptr, ptr %1, align 8
  %19 = getelementptr inbounds nuw %struct.anon.4, ptr %18, i32 0, i32 33
  %20 = load i32, ptr %19, align 8
  %21 = sext i32 %20 to i64
  %22 = getelementptr inbounds %struct.Screen, ptr %17, i64 %21
  %23 = getelementptr inbounds nuw %struct.Screen, ptr %22, i32 0, i32 2
  %24 = load i64, ptr %23, align 8
  %25 = getelementptr inbounds [1 x i8], ptr %2, i64 0, i64 0
  %26 = call i64 %13(ptr noundef %14, i64 noundef %24, ptr noundef %25, i32 noundef 1, i32 noundef 1)
  store i64 %26, ptr %4, align 8
  %27 = load i64, ptr %4, align 8
  %28 = icmp ne i64 %27, 0
  br i1 %28, label %29, label %39

29:                                               ; preds = %7
  %30 = load ptr, ptr @X11_XCreatePixmapCursor, align 8
  %31 = load ptr, ptr %1, align 8
  %32 = load i64, ptr %4, align 8
  %33 = load i64, ptr %4, align 8
  %34 = call i64 %30(ptr noundef %31, i64 noundef %32, i64 noundef %33, ptr noundef %3, ptr noundef %3, i32 noundef 0, i32 noundef 0)
  store i64 %34, ptr @x11_empty_cursor, align 8
  %35 = load ptr, ptr @X11_XFreePixmap, align 8
  %36 = load ptr, ptr %1, align 8
  %37 = load i64, ptr %4, align 8
  %38 = call i32 %35(ptr noundef %36, i64 noundef %37)
  br label %39

39:                                               ; preds = %29, %7
  call void @llvm.lifetime.end.p0(i64 8, ptr %4) #6
  call void @llvm.lifetime.end.p0(i64 16, ptr %3) #6
  call void @llvm.lifetime.end.p0(i64 1, ptr %2) #6
  call void @llvm.lifetime.end.p0(i64 8, ptr %1) #6
  br label %40

40:                                               ; preds = %39, %0
  %41 = load i64, ptr @x11_empty_cursor, align 8
  ret i64 %41
}

; Function Attrs: nounwind uwtable
define internal zeroext i1 @X11_ShowCursor(ptr noundef %0) #0 {
  %2 = alloca ptr, align 8
  %3 = alloca i64, align 8
  %4 = alloca ptr, align 8
  %5 = alloca ptr, align 8
  %6 = alloca ptr, align 8
  %7 = alloca ptr, align 8
  store ptr %0, ptr %2, align 8
  call void @llvm.lifetime.start.p0(i64 8, ptr %3) #6
  store i64 0, ptr %3, align 8
  %8 = load ptr, ptr %2, align 8
  %9 = icmp ne ptr %8, null
  br i1 %9, label %10, label %16

10:                                               ; preds = %1
  %11 = load ptr, ptr %2, align 8
  %12 = getelementptr inbounds nuw %struct.SDL_Cursor, ptr %11, i32 0, i32 1
  %13 = load ptr, ptr %12, align 8
  %14 = getelementptr inbounds nuw %struct.SDL_CursorData, ptr %13, i32 0, i32 0
  %15 = load i64, ptr %14, align 8
  store i64 %15, ptr %3, align 8
  br label %18

16:                                               ; preds = %1
  %17 = call i64 @X11_CreateEmptyCursor()
  store i64 %17, ptr %3, align 8
  br label %18

18:                                               ; preds = %16, %10
  call void @llvm.lifetime.start.p0(i64 8, ptr %4) #6
  %19 = call ptr @SDL_GetVideoDevice()
  store ptr %19, ptr %4, align 8
  call void @llvm.lifetime.start.p0(i64 8, ptr %5) #6
  %20 = call ptr @GetDisplay()
  store ptr %20, ptr %5, align 8
  call void @llvm.lifetime.start.p0(i64 8, ptr %6) #6
  %21 = load ptr, ptr %2, align 8
  %22 = icmp ne ptr %21, null
  %23 = xor i1 %22, true
  %24 = xor i1 %23, true
  %25 = zext i1 %24 to i8
  store i8 %25, ptr @x11_cursor_visible, align 1
  %26 = load ptr, ptr %4, align 8
  %27 = getelementptr inbounds nuw %struct.SDL_VideoDevice, ptr %26, i32 0, i32 105
  %28 = load ptr, ptr %27, align 8
  store ptr %28, ptr %6, align 8
  br label %29

29:                                               ; preds = %58, %18
  %30 = load ptr, ptr %6, align 8
  %31 = icmp ne ptr %30, null
  br i1 %31, label %32, label %62

32:                                               ; preds = %29
  call void @llvm.lifetime.start.p0(i64 8, ptr %7) #6
  %33 = load ptr, ptr %6, align 8
  %34 = getelementptr inbounds nuw %struct.SDL_Window, ptr %33, i32 0, i32 59
  %35 = load ptr, ptr %34, align 8
  store ptr %35, ptr %7, align 8
  %36 = load ptr, ptr %7, align 8
  %37 = icmp ne ptr %36, null
  br i1 %37, label %38, label %57

38:                                               ; preds = %32
  %39 = load i64, ptr %3, align 8
  %40 = icmp ne i64 %39, 0
  br i1 %40, label %41, label %49

41:                                               ; preds = %38
  %42 = load ptr, ptr @X11_XDefineCursor, align 8
  %43 = load ptr, ptr %5, align 8
  %44 = load ptr, ptr %7, align 8
  %45 = getelementptr inbounds nuw %struct.SDL_WindowData, ptr %44, i32 0, i32 1
  %46 = load i64, ptr %45, align 8
  %47 = load i64, ptr %3, align 8
  %48 = call i32 %42(ptr noundef %43, i64 noundef %46, i64 noundef %47)
  br label %56

49:                                               ; preds = %38
  %50 = load ptr, ptr @X11_XUndefineCursor, align 8
  %51 = load ptr, ptr %5, align 8
  %52 = load ptr, ptr %7, align 8
  %53 = getelementptr inbounds nuw %struct.SDL_WindowData, ptr %52, i32 0, i32 1
  %54 = load i64, ptr %53, align 8
  %55 = call i32 %50(ptr noundef %51, i64 noundef %54)
  br label %56

56:                                               ; preds = %49, %41
  br label %57

57:                                               ; preds = %56, %32
  call void @llvm.lifetime.end.p0(i64 8, ptr %7) #6
  br label %58

58:                                               ; preds = %57
  %59 = load ptr, ptr %6, align 8
  %60 = getelementptr inbounds nuw %struct.SDL_Window, ptr %59, i32 0, i32 62
  %61 = load ptr, ptr %60, align 8
  store ptr %61, ptr %6, align 8
  br label %29, !llvm.loop !5

62:                                               ; preds = %29
  %63 = load ptr, ptr @X11_XFlush, align 8
  %64 = load ptr, ptr %5, align 8
  %65 = call i32 %63(ptr noundef %64)
  call void @llvm.lifetime.end.p0(i64 8, ptr %6) #6
  call void @llvm.lifetime.end.p0(i64 8, ptr %5) #6
  call void @llvm.lifetime.end.p0(i64 8, ptr %4) #6
  call void @llvm.lifetime.end.p0(i64 8, ptr %3) #6
  ret i1 true
}