; Function Attrs: nounwind uwtable
define internal noundef zeroext i1 @X11_ShowCursor(ptr noundef readonly captures(address_is_null) %0) #0 {
  %2 = alloca [1 x i8], align 1
  %3 = alloca %struct.XColor, align 8
  %4 = icmp ne ptr %0, null
  br i1 %4, label %5, label %9

5:                                                ; preds = %1
  %6 = getelementptr inbounds nuw i8, ptr %0, i64 8
  %7 = load ptr, ptr %6, align 8
  %8 = load i64, ptr %7, align 8
  br label %X11_CreateEmptyCursor.exit

9:                                                ; preds = %1
  %10 = load i64, ptr @x11_empty_cursor, align 8
  %11 = icmp eq i64 %10, 0
  br i1 %11, label %12, label %X11_CreateEmptyCursor.exit

12:                                               ; preds = %9
  %13 = tail call ptr @SDL_GetVideoDevice() #5
  %14 = getelementptr inbounds nuw i8, ptr %13, i64 1656
  %15 = load ptr, ptr %14, align 8
  %16 = load ptr, ptr %15, align 8
  call void @llvm.lifetime.start.p0(i64 1, ptr nonnull %2) #5
  call void @llvm.lifetime.start.p0(i64 16, ptr nonnull %3) #5
  store i8 0, ptr %2, align 1
  %17 = getelementptr inbounds nuw i8, ptr %3, i64 12
  store i16 0, ptr %17, align 4
  %18 = getelementptr inbounds nuw i8, ptr %3, i64 10
  store i16 0, ptr %18, align 2
  %19 = getelementptr inbounds nuw i8, ptr %3, i64 8
  store i16 0, ptr %19, align 8
  %20 = load ptr, ptr @X11_XCreateBitmapFromData, align 8
  %21 = getelementptr inbounds nuw i8, ptr %16, i64 232
  %22 = load ptr, ptr %21, align 8
  %23 = getelementptr inbounds nuw i8, ptr %16, i64 224
  %24 = load i32, ptr %23, align 8
  %25 = sext i32 %24 to i64
  %26 = getelementptr inbounds %struct.Screen, ptr %22, i64 %25, i32 2
  %27 = load i64, ptr %26, align 8
  %28 = call i64 %20(ptr noundef %16, i64 noundef %27, ptr noundef nonnull %2, i32 noundef 1, i32 noundef 1) #5
  %.not.i = icmp eq i64 %28, 0
  br i1 %.not.i, label %34, label %29

29:                                               ; preds = %12
  %30 = load ptr, ptr @X11_XCreatePixmapCursor, align 8
  %31 = call i64 %30(ptr noundef nonnull %16, i64 noundef %28, i64 noundef %28, ptr noundef nonnull %3, ptr noundef nonnull %3, i32 noundef 0, i32 noundef 0) #5
  store i64 %31, ptr @x11_empty_cursor, align 8
  %32 = load ptr, ptr @X11_XFreePixmap, align 8
  %33 = call i32 %32(ptr noundef nonnull %16, i64 noundef %28) #5
  br label %34

34:                                               ; preds = %29, %12
  call void @llvm.lifetime.end.p0(i64 16, ptr nonnull %3) #5
  call void @llvm.lifetime.end.p0(i64 1, ptr nonnull %2) #5
  %.pre.i = load i64, ptr @x11_empty_cursor, align 8
  br label %X11_CreateEmptyCursor.exit

X11_CreateEmptyCursor.exit:                       ; preds = %34, %9, %5
  %.0 = phi i64 [ %8, %5 ], [ %.pre.i, %34 ], [ %10, %9 ]
  %.0.fr = freeze i64 %.0
  %35 = call ptr @SDL_GetVideoDevice() #5
  %36 = call ptr @SDL_GetVideoDevice() #5
  %37 = getelementptr inbounds nuw i8, ptr %36, i64 1656
  %38 = load ptr, ptr %37, align 8
  %39 = load ptr, ptr %38, align 8
  %40 = zext i1 %4 to i8
  store i8 %40, ptr @x11_cursor_visible, align 1
  %41 = getelementptr inbounds nuw i8, ptr %35, i64 832
  %.01419 = load ptr, ptr %41, align 8
  %.not20 = icmp eq ptr %.01419, null
  br i1 %.not20, label %._crit_edge, label %.lr.ph

.lr.ph:                                           ; preds = %X11_CreateEmptyCursor.exit
  %.not18 = icmp eq i64 %.0.fr, 0
  br i1 %.not18, label %.lr.ph.split.us, label %.lr.ph.split

.lr.ph.split.us:                                  ; preds = %.lr.ph, %49
  %.01421.us = phi ptr [ %.014.us, %49 ], [ %.01419, %.lr.ph ]
  %42 = getelementptr inbounds nuw i8, ptr %.01421.us, i64 392
  %43 = load ptr, ptr %42, align 8
  %.not17.us = icmp eq ptr %43, null
  br i1 %.not17.us, label %49, label %44

44:                                               ; preds = %.lr.ph.split.us
  %45 = load ptr, ptr @X11_XUndefineCursor, align 8
  %46 = getelementptr inbounds nuw i8, ptr %43, i64 8
  %47 = load i64, ptr %46, align 8
  %48 = call i32 %45(ptr noundef %39, i64 noundef %47) #5
  br label %49

49:                                               ; preds = %44, %.lr.ph.split.us
  %50 = getelementptr inbounds nuw i8, ptr %.01421.us, i64 416
  %.014.us = load ptr, ptr %50, align 8
  %.not.us = icmp eq ptr %.014.us, null
  br i1 %.not.us, label %._crit_edge, label %.lr.ph.split.us, !llvm.loop !7

.lr.ph.split:                                     ; preds = %.lr.ph, %58
  %.01421 = phi ptr [ %.014, %58 ], [ %.01419, %.lr.ph ]
  %51 = getelementptr inbounds nuw i8, ptr %.01421, i64 392
  %52 = load ptr, ptr %51, align 8
  %.not17 = icmp eq ptr %52, null
  br i1 %.not17, label %58, label %53

53:                                               ; preds = %.lr.ph.split
  %54 = load ptr, ptr @X11_XDefineCursor, align 8
  %55 = getelementptr inbounds nuw i8, ptr %52, i64 8
  %56 = load i64, ptr %55, align 8
  %57 = call i32 %54(ptr noundef %39, i64 noundef %56, i64 noundef %.0.fr) #5
  br label %58

58:                                               ; preds = %53, %.lr.ph.split
  %59 = getelementptr inbounds nuw i8, ptr %.01421, i64 416
  %.014 = load ptr, ptr %59, align 8
  %.not = icmp eq ptr %.014, null
  br i1 %.not, label %._crit_edge, label %.lr.ph.split, !llvm.loop !7

._crit_edge:                                      ; preds = %58, %49, %X11_CreateEmptyCursor.exit
  %60 = load ptr, ptr @X11_XFlush, align 8
  %61 = call i32 %60(ptr noundef %39) #5
  ret i1 true
}